; Function Attrs: mustprogress uwtable
define internal fastcc void @"_ZZN23cmCommonTargetGenerator22GenerateCodeCheckRulesERK12cmSourceFileRNSt7__cxx1112basic_stringIcSt11char_traitsIcESaIcEEERKS8_SB_RKSt8functionIFS8_SB_EEENK3$_0clB5cxx11ESB_"(ptr dead_on_unwind noalias writable align 8 %0, ptr nocapture noundef nonnull readonly align 8 dereferenceable(24) %1, ptr noundef nonnull align 8 dereferenceable(32) %2) unnamed_addr #3 align 2 personality ptr @__gxx_personality_v0 {
  %4 = alloca %"class.std::__cxx11::basic_string", align 8
  %5 = load ptr, ptr %1, align 8
  %6 = getelementptr inbounds i8, ptr %5, i64 8
  %7 = load ptr, ptr %6, align 8
  %8 = tail call ptr @_ZNK17cmGeneratorTarget11GetPropertyERKNSt7__cxx1112basic_stringIcSt11char_traitsIcESaIcEEE(ptr noundef nonnull align 8 dereferenceable(2728) %7, ptr noundef nonnull align 8 dereferenceable(32) %2)
  %.not = icmp eq ptr %8, null
  br i1 %.not, label %9, label %10

9:                                                ; preds = %3
  tail call void @_ZNSt7__cxx1112basic_stringIcSt11char_traitsIcESaIcEEC1Ev(ptr noundef nonnull align 8 dereferenceable(32) %0) #22
  br label %22

10:                                               ; preds = %3
  call void @_ZNSt7__cxx1112basic_stringIcSt11char_traitsIcESaIcEEC1ERKS4_(ptr noundef nonnull align 8 dereferenceable(32) %4, ptr noundef nonnull align 8 dereferenceable(32) %8)
  %11 = load ptr, ptr %6, align 8
  %12 = invoke noundef ptr @_ZNK17cmGeneratorTarget17GetLocalGeneratorEv(ptr noundef nonnull align 8 dereferenceable(2728) %11)
          to label %13 unwind label %20

13:                                               ; preds = %10
  %14 = getelementptr inbounds i8, ptr %1, i64 8
  %15 = load ptr, ptr %14, align 8
  %16 = load ptr, ptr %6, align 8
  %17 = getelementptr inbounds i8, ptr %1, i64 16
  %18 = load ptr, ptr %17, align 8
  invoke void @_ZN21cmGeneratorExpression8EvaluateENSt7__cxx1112basic_stringIcSt11char_traitsIcESaIcEEEP16cmLocalGeneratorRKS5_PK17cmGeneratorTargetP31cmGeneratorExpressionDAGCheckerSC_S9_(ptr dead_on_unwind writable sret(%"class.std::__cxx11::basic_string") align 8 %0, ptr noundef nonnull %4, ptr noundef %12, ptr noundef nonnull align 8 dereferenceable(32) %15, ptr noundef %16, ptr noundef null, ptr noundef %16, ptr noundef nonnull align 8 dereferenceable(32) %18)
          to label %19 unwind label %20

19:                                               ; preds = %13
  call void @_ZNSt7__cxx1112basic_stringIcSt11char_traitsIcESaIcEED1Ev(ptr noundef nonnull align 8 dereferenceable(32) %4) #22
  br label %22

20:                                               ; preds = %13, %10
  %21 = landingpad { ptr, i32 }
          cleanup
  call void @_ZNSt7__cxx1112basic_stringIcSt11char_traitsIcESaIcEED1Ev(ptr noundef nonnull align 8 dereferenceable(32) %4) #22
  resume { ptr, i32 } %21

22:                                               ; preds = %19, %9
  ret void
}